(dp0
I8193
I2
sI8196
I2
sI8201
I11
sI8202
I1
sI8207
I1
sI8208
I1
sI8210
I3
sI8211
I2
sI8212
I2
sI8215
I1
sI8220
I2
sI8223
I3
sI8224
I5
sI8225
I1
sI8226
I1
sI8227
I3
sI8234
I3
sI8235
I6
sI8236
I5
sI8239
I6
sI8240
I1
sI8241
I7
sI8242
I6
sI8243
I5
sI8244
I7
sI8246
I1
sI8248
I1
sI8251
I1
sI8252
I1
sI8257
I11
sI8258
I6
sI8265
I1
sI8267
I1
sI8272
I2
sI8276
I1
sI8279
I1
sI8280
I5
sI8281
I5
sI8282
I4
sI8283
I1
sI8284
I1
sI8285
I2
sI8291
I11
sI8292
I5
sI8294
I2
sI8295
I1
sI8297
I4
sI8298
I8
sI8299
I11
sI8300
I14
sI8301
I3
sI8302
I1
sI8303
I2
sI8304
I4
sI8305
I1
sI8307
I3
sI8308
I1
sI8313
I10
sI8314
I8
sI8317
I2
sI8318
I2
sI8320
I1
sI8322
I1
sI8333
I4
sI8339
I5
sI8340
I7
sI8341
I6
sI8345
I2
sI8346
I2
sI8347
I16
sI8348
I12
sI8350
I3
sI8353
I5
sI8354
I6
sI8355
I7
sI8356
I8
sI8357
I2
sI8358
I2
sI8359
I2
sI8361
I2
sI8362
I1
sI8363
I3
sI8364
I8
sI8365
I3
sI8369
I13
sI8370
I17
sI8374
I2
sI8381
I1
sI8384
I4
sI8385
I1
sI8386
I3
sI8387
I2
sI8388
I4
sI8390
I2
sI8395
I7
sI8396
I7
sI8397
I7
sI8398
I2
sI8401
I8
sI8402
I1
sI8403
I9
sI8404
I5
sI8409
I7
sI8410
I5
sI8411
I6
sI8412
I14
sI8414
I1
sI8415
I1
sI8418
I1
sI8422
I2
sI8425
I8
sI8426
I6
sI8432
I1
sI8440
I3
sI8442
I2
sI8443
I3
sI8444
I1
sI8447
I1
sI8450
I2
sI8451
I12
sI8452
I10
sI8453
I7
sI8454
I3
sI8456
I2
sI8457
I1
sI8459
I10
sI8460
I12
sI8462
I2
sI8463
I6
sI8464
I2
sI8465
I6
sI8466
I9
sI8467
I6
sI8468
I10
sI8469
I1
sI8473
I1
sI8476
I2
sI8477
I2
sI8481
I16
sI8482
I7
sI8487
I1
sI8491
I3
sI8492
I5
sI8494
I1
sI8495
I1
sI8498
I1
sI8501
I1
sI8502
I1
sI8507
I6
sI8508
I9
sI8509
I10
sI8510
I4
sI8511
I1
sI8515
I11
sI8516
I5
sI8517
I1
sI8519
I4
sI8520
I6
sI8521
I3
sI8522
I18
sI8523
I5
sI8524
I4
sI8525
I1
sI8528
I3
sI8529
I1
sI8532
I2
sI8537
I7
sI8538
I2
sI8539
I10
sI8540
I6
sI8542
I2
sI8543
I1
sI8544
I1
sI8546
I2
sI8547
I3
sI8550
I1
sI8551
I1
sI8552
I2
sI8553
I1
sI8562
I1
sI8564
I2
sI8565
I6
sI8566
I5
sI8568
I2
sI8571
I2
sI8572
I8
sI8575
I3
sI8576
I8
sI8577
I5
sI8578
I6
sI8579
I1
sI8582
I2
sI8583
I1
sI8585
I4
sI8587
I4
sI8590
I1
sI8596
I6
sI8598
I1
sI8599
I2
sI8603
I6
sI8604
I5
sI8608
I3
sI8609
I2
sI8611
I1
sI8612
I1
sI8613
I2
sI8618
I1
sI8620
I2
sI8621
I3
sI8622
I7
sI8623
I1
sI8624
I6
sI8625
I8
sI8627
I5
sI8628
I3
sI8630
I1
sI8631
I12
sI8632
I2
sI8633
I5
sI8634
I14
sI8638
I3
sI8640
I1
sI8644
I2
sI8645
I2
sI8651
I2
sI8652
I1
sI8653
I2
sI8659
I10
sI8660
I9
sI8662
I4
sI8664
I1
sI8670
I1
sI8671
I11
sI8674
I7
sI8677
I4
sI8678
I7
sI8680
I1
sI8681
I11
sI8682
I1
sI8683
I14
sI8684
I2
sI8687
I10
sI8688
I8
sI8689
I5
sI8690
I6
sI8691
I1
sI8694
I2
sI8695
I1
sI8698
I1
sI8699
I1
sI8700
I1
sI8702
I1
sI8708
I8
sI8709
I2
sI8711
I3
sI8712
I2
sI8715
I3
sI8716
I8
sI8717
I1
sI8719
I3
sI8720
I1
sI8721
I1
sI8722
I4
sI8724
I2
sI8727
I8
sI8728
I10
sI8729
I7
sI8730
I4
sI8732
I2
sI8733
I9
sI8734
I10
sI8737
I7
sI8738
I2
sI8739
I6
sI8740
I16
sI8741
I3
sI8743
I6
sI8744
I6
sI8745
I7
sI8746
I9
sI8747
I3
sI8748
I4
sI8752
I1
sI8753
I2
sI8754
I1
sI8755
I2
sI8761
I4
sI8762
I2
sI8763
I10
sI8764
I1
sI8771
I9
sI8772
I10
sI8773
I2
sI8774
I2
sI8776
I1
sI8778
I1
sI8780
I2
sI8781
I1
sI8783
I15
sI8784
I13
sI8785
I7
sI8786
I5
sI8789
I1
sI8790
I8
sI8795
I7
sI8796
I4
sI8797
I2
sI8799
I1
sI8800
I7
sI8801
I1
sI8802
I8
sI8803
I2
sI8804
I3
sI8806
I2
sI8809
I2
sI8810
I1
sI8812
I2
sI8817
I11
sI8818
I10
sI8819
I5
sI8820
I1
sI8821
I3
sI8825
I3
sI8827
I4
sI8828
I6
sI8832
I4
sI8835
I1
sI8839
I7
sI8840
I13
sI8841
I17
sI8842
I4
sI8845
I3
sI8846
I7
sI8851
I3
sI8852
I11
sI8853
I3
sI8855
I4
sI8856
I3
sI8857
I8
sI8858
I9
sI8859
I10
sI8860
I12
sI8864
I1
sI8866
I1
sI8869
I1
sI8873
I15
sI8874
I9
sI8875
I9
sI8876
I4
sI8878
I2
sI8879
I1
sI8880
I1
sI8881
I1
sI8882
I2
sI8883
I8
sI8884
I2
sI8885
I1
sI8886
I2
sI8888
I1
sI8890
I1
sI8891
I1
sI8893
I1
sI8894
I2
sI8895
I5
sI8896
I10
sI8897
I5
sI8898
I1
sI8900
I5
sI8901
I9
sI8902
I4
sI8907
I2
sI8908
I9
sI8909
I1
sI8911
I8
sI8912
I5
sI8914
I3
sI8915
I6
sI8916
I5
sI8919
I1
sI8922
I1
sI8923
I1
sI8925
I1
sI8929
I9
sI8930
I1
sI8931
I8
sI8935
I1
sI8936
I3
sI8939
I4
sI8940
I8
sI8941
I1
sI8943
I3
sI8944
I1
sI8949
I3
sI8951
I3
sI8952
I3
sI8953
I6
sI8954
I2
sI8956
I7
sI8957
I4
sI8958
I8
sI8963
I8
sI8964
I2
sI8965
I2
sI8966
I8
sI8967
I5
sI8968
I3
sI8971
I2
sI8972
I6
sI8973
I1
sI8977
I1
sI8978
I2
sI8981
I3
sI8982
I5
sI8984
I2
sI8985
I1
sI8986
I4
sI8988
I4
sI8990
I1
sI8991
I2
sI8992
I2
sI8993
I4
sI8994
I1
sI8998
I6
sI8999
I3
sI9000
I4
sI9001
I1
sI9002
I10
sI9003
I3
sI9004
I11
sI9009
I3
sI9010
I1
sI9014
I1
sI9016
I3
sI9019
I7
sI9020
I4
sI9021
I11
sI9022
I6
sI9023
I16
sI9024
I5
sI9028
I3
sI9029
I5
sI9033
I1
sI9034
I1
sI9037
I2
sI9038
I1
sI9041
I2
sI9042
I6
sI9043
I7
sI9044
I7
sI9045
I1
sI9046
I2
sI9047
I8
sI9048
I6
sI9049
I3
sI9050
I7
sI9053
I2
sI9055
I6
sI9056
I5
sI9057
I1
sI9058
I9
sI9059
I2
sI9060
I3
sI9061
I4
sI9062
I3
sI9065
I4
sI9069
I3
sI9070
I5
sI9071
I5
sI9072
I11
sI9075
I3
sI9076
I6
sI9077
I3
sI9078
I5
sI9079
I4
sI9080
I5
sI9081
I1
sI9085
I1
sI9086
I1
sI9089
I4
sI9090
I3
sI9093
I4
sI9094
I4
sI9097
I8
sI9098
I1
sI9099
I2
sI9103
I2
sI9104
I3
sI9109
I2
sI9111
I9
sI9112
I1
sI9113
I4
sI9114
I3
sI9115
I1
sI9116
I1
sI9118
I3
sI9122
I1
sI9126
I3
sI9127
I1
sI9128
I8
sI9129
I3
sI9132
I4
sI9133
I10
sI9134
I2
sI9135
I9
sI9136
I5
sI9137
I1
sI9139
I1
sI9140
I3
sI9141
I11
sI9142
I3
sI9143
I2
sI9144
I2
sI9145
I2
sI9146
I4
sI9149
I6
sI9150
I2
sI9151
I2
sI9152
I1
sI9153
I1
sI9154
I1
sI9156
I1
sI9157
I1
sI9158
I3
sI9160
I4
sI9168
I3
sI9169
I2
sI9170
I1
sI9173
I2
sI9174
I3
sI9175
I4
sI9177
I4
sI9178
I1
sI9179
I4
sI9180
I4
sI9181
I4
sI9182
I3
sI9183
I1
sI9184
I10
sI9186
I2
sI9187
I2
sI9188
I2
sI9189
I1
sI9190
I6
sI9191
I4
sI9192
I14
sI9193
I3
sI9195
I1
sI9197
I2
sI9198
I2
sI9199
I5
sI9200
I9
sI9201
I3
sI9202
I2
sI9205
I6
sI9207
I1
sI9209
I2
sI9210
I5
sI9211
I1
sI9212
I1
sI9213
I6
sI9215
I5
sI9216
I5
sI9221
I4
sI9223
I5
sI9224
I2
sI9225
I2
sI9228
I1
sI9229
I2
sI9230
I1
sI9231
I1
sI9232
I4
sI9233
I5
sI9234
I10
sI9235
I16
sI9236
I4
sI9237
I1
sI9238
I4
sI9239
I1
sI9240
I8
sI9243
I5
sI9244
I7
sI9245
I17
sI9246
I7
sI9247
I8
sI9248
I9
sI9249
I7
sI9250
I1
sI9253
I9
sI9254
I9
sI9256
I13
sI9257
I2
sI9258
I8
sI9261
I2
sI9262
I2
sI9263
I1
sI9266
I3
sI9269
I6
sI9270
I2
sI9271
I12
sI9272
I20
sI9273
I5
sI9274
I6
sI9277
I3
sI9278
I1
sI9279
I4
sI9280
I4
sI9282
I1
sI9285
I10
sI9286
I2
sI9287
I7
sI9288
I12
sI9289
I7
sI9290
I18
sI9291
I12
sI9292
I11
sI9293
I1
sI9294
I8
sI9296
I23
sI9299
I4
sI9300
I3
sI9301
I3
sI9302
I8
sI9303
I11
sI9304
I6
sI9305
I3
sI9306
I3
sI9309
I3
sI9310
I3
sI9311
I4
sI9312
I3
sI9313
I3
sI9314
I1
sI9317
I2
sI9318
I2
sI9319
I1
sI9322
I2
sI9324
I4
sI9325
I1
sI9326
I2
sI9327
I1
sI9328
I3
sI9329
I3
sI9330
I6
sI9336
I5
sI9338
I3
sI9339
I3
sI9340
I3
sI9341
I4
sI9342
I3
sI9343
I6
sI9345
I6
sI9346
I6
sI9347
I7
sI9348
I6
sI9349
I3
sI9351
I2
sI9352
I12
sI9354
I1
sI9355
I2
sI9356
I3
sI9357
I6
sI9358
I6
sI9359
I4
sI9360
I3
sI9361
I5
sI9363
I3
sI9364
I7
sI9365
I8
sI9366
I8
sI9367
I8
sI9368
I5
sI9369
I3
sI9375
I1
sI9377
I5
sI9379
I2
sI9381
I1
sI9382
I2
sI9383
I1
sI9384
I5
sI9385
I4
sI9386
I5
sI9390
I2
sI9392
I3
sI9393
I4
sI9394
I4
sI9395
I2
sI9397
I5
sI9398
I3
sI9399
I4
sI9400
I6
sI9401
I4
sI9402
I2
sI9403
I4
sI9404
I8
sI9405
I1
sI9406
I4
sI9407
I2
sI9408
I2
sI9411
I3
sI9413
I3
sI9414
I9
sI9415
I7
sI9416
I8
sI9417
I4
sI9418
I2
sI9420
I6
sI9421
I7
sI9422
I3
sI9423
I4
sI9424
I6
sI9425
I4
sI9426
I1
sI9430
I2
sI9433
I3
sI9438
I2
sI9439
I6
sI9440
I3
sI9441
I4
sI9442
I3
sI9445
I2
sI9446
I3
sI9447
I6
sI9448
I2
sI9450
I4
sI9451
I6
sI9452
I1
sI9453
I2
sI9454
I2
sI9455
I4
sI9456
I2
sI9457
I5
sI9458
I4
sI9459
I10
sI9460
I5
sI9463
I1
sI9464
I3
sI9465
I3
sI9466
I2
sI9469
I6
sI9470
I6
sI9471
I6
sI9472
I4
sI9473
I1
sI9475
I3
sI9476
I3
sI9477
I10
sI9478
I6
sI9479
I9
sI9480
I2
sI9481
I1
sI9482
I1
sI9485
I3
sI9486
I1
sI9487
I1
sI9488
I2
sI9489
I1
sI9491
I1
sI9496
I4
sI9497
I5
sI9498
I3
sI9503
I5
sI9504
I4
sI9505
I1
sI9506
I8
sI9507
I4
sI9508
I1
sI9509
I5
sI9511
I2
sI9512
I4
sI9513
I1
sI9514
I9
sI9515
I8
sI9516
I13
sI9518
I3
sI9519
I1
sI9520
I6
sI9523
I5
sI9524
I1
sI9525
I3
sI9527
I15
sI9528
I2
sI9529
I5
sI9531
I2
sI9532
I5
sI9533
I5
sI9534
I9
sI9535
I11
sI9536
I5
sI9537
I6
sI9538
I5
sI9541
I3
sI9542
I2
sI9544
I2
sI9545
I3
sI9548
I2
sI9549
I2
sI9551
I3
sI9552
I2
sI9553
I4
sI9554
I7
sI9557
I1
sI9558
I1
sI9559
I3
sI9560
I3
sI9561
I6
sI9562
I6
sI9563
I8
sI9564
I6
sI9565
I4
sI9566
I2
sI9567
I4
sI9568
I1
sI9569
I2
sI9570
I6
sI9571
I7
sI9572
I1
sI9574
I6
sI9575
I1
sI9576
I8
sI9579
I1
sI9581
I4
sI9582
I6
sI9583
I3
sI9584
I6
sI9585
I1
sI9586
I7
sI9587
I5
sI9588
I6
sI9589
I1
sI9590
I9
sI9591
I8
sI9592
I7
sI9593
I2
sI9594
I2
sI9598
I4
sI9601
I3
sI9602
I2
sI9603
I2
sI9605
I1
sI9606
I1
sI9607
I1
sI9608
I7
sI9609
I3
sI9610
I3
sI9616
I3
sI9617
I4
sI9618
I4
sI9619
I2
sI9620
I4
sI9622
I4
sI9623
I2
sI9624
I2
sI9625
I5
sI9626
I3
sI9627
I13
sI9628
I4
sI9629
I8
sI9630
I2
sI9631
I2
sI9632
I5
sI9635
I1
sI9636
I3
sI9637
I5
sI9638
I4
sI9639
I7
sI9640
I1
sI9641
I1
sI9643
I8
sI9644
I8
sI9645
I5
sI9646
I8
sI9647
I6
sI9648
I5
sI9649
I4
sI9650
I3
sI9653
I4
sI9656
I1
sI9657
I4
sI9662
I1
sI9663
I2
sI9664
I5
sI9665
I3
sI9666
I2
sI9670
I2
sI9671
I6
sI9672
I4
sI9673
I4
sI9674
I5
sI9675
I6
sI9676
I5
sI9677
I3
sI9679
I4
sI9680
I2
sI9681
I1
sI9682
I1
sI9683
I10
sI9684
I6
sI9685
I3
sI9686
I4
sI9688
I13
sI9693
I3
sI9694
I5
sI9695
I3
sI9696
I2
sI9697
I4
sI9698
I1
sI9699
I2
sI9700
I2
sI9701
I7
sI9702
I4
sI9703
I4
sI9705
I4
sI9706
I3
sI9709
I2
sI9710
I1
sI9713
I2
sI9714
I7
sI9715
I2
sI9719
I2
sI9720
I5
sI9721
I4
sI9722
I3
sI9727
I2
sI9728
I4
sI9729
I3
sI9730
I4
sI9731
I4
sI9732
I2
sI9733
I3
sI9734
I2
sI9735
I1
sI9736
I2
sI9738
I8
sI9740
I1
sI9741
I3
sI9742
I7
sI9744
I3
sI9748
I1
sI9750
I3
sI9751
I1
sI9752
I1
sI9753
I2
sI9755
I2
sI9756
I5
sI9757
I5
sI9758
I6
sI9759
I10
sI9760
I4
sI9761
I3
sI9762
I1
sI9765
I5
sI9766
I2
sI9767
I1
sI9768
I3
sI9769
I3
sI9770
I2
sI9775
I2
sI9776
I9
sI9777
I5
sI9781
I1
sI9784
I2
sI9785
I3
sI9786
I2
sI9787
I3
sI9789
I1
sI9790
I2
sI9791
I3
sI9792
I2
sI9793
I2
sI9794
I7
sI9795
I3
sI9796
I2
sI9797
I5
sI9798
I1
sI9799
I1
sI9800
I4
sI9801
I2
sI9805
I1
sI9806
I2
sI9807
I1
sI9808
I8
sI9811
I6
sI9813
I3
sI9814
I2
sI9815
I2
sI9816
I2
sI9817
I1
sI9818
I3
sI9821
I2
sI9822
I4
sI9823
I3
sI9824
I2
sI9825
I3
sI9826
I1
sI9829
I1
sI9831
I1
sI9832
I4
sI9833
I2
sI9838
I1
sI9839
I2
sI9840
I3
sI9841
I2
sI9842
I3
sI9843
I4
sI9844
I1
sI9847
I3
sI9848
I4
sI9849
I4
sI9850
I3
sI9851
I1
sI9852
I4
sI9853
I1
sI9855
I1
sI9856
I14
sI9863
I3
sI9864
I9
sI9865
I2
sI9866
I12
sI9869
I5
sI9871
I1
sI9872
I2
sI9873
I6
sI9874
I8
sI9876
I4
sI9877
I2
sI9878
I19
sI9887
I2
sI9888
I5
sI9894
I3
sI9895
I2
sI9896
I1
sI9898
I2
sI9902
I3
sI9905
I6
sI9906
I11
sI9908
I2
sI9919
I6
sI9920
I9
sI9921
I8
sI9922
I3
sI9925
I3
sI9926
I4
sI9928
I4
sI9929
I4
sI9930
I8
sI9933
I15
sI9934
I8
sI9941
I4
sI9943
I8
sI9944
I12
sI9946
I1
sI9949
I6
sI9950
I9
sI9951
I1
sI9952
I6
sI9954
I1
sI9957
I2
sI9959
I9
sI9961
I7
sI9962
I6
sI9963
I1
sI9971
I1
sI9975
I7
sI9976
I7
sI9977
I8
sI9978
I4
sI9981
I2
sI9982
I2
sI9985
I2
sI9989
I9
sI9990
I6
sI9999
I6
sI10000
I4
sI10003
I3
sI10004
I2
sI10005
I2
sI10006
I3
sI10007
I1
sI10008
I1
sI10015
I2
sI10017
I2
sI10018
I3
sI10028
I1
sI10031
I7
sI10032
I12
sI10033
I11
sI10034
I9
sI10037
I5
sI10038
I4
sI10039
I1
sI10045
I6
sI10046
I12
sI10055
I1
sI10056
I2
sI10058
I1
sI10059
I1
sI10060
I3
sI10061
I8
sI10062
I5
sI10063
I2
sI10065
I1
sI10075
I1
sI10083
I3
sI10087
I1
sI10089
I4
sI10090
I1
sI10093
I7
sI10094
I6
sI10095
I1
sI10101
I10
sI10102
I9
sI10104
I1
sI10111
I1
sI10113
I5
sI10114
I1
sI10115
I8
sI10116
I2
sI10117
I4
sI10118
I7
sI10119
I3
sI10121
I2
sI10139
I1
sI10140
I2
sI10143
I4
sI10149
I2
sI10152
I1
sI10153
I1
sI10157
I12
sI10158
I6
sI10159
I1
sI10165
I1
sI10170
I1
sI10171
I11
sI10172
I6
sI10173
I9
sI10174
I13
sI10177
I1
sI10178
I5
sI10184
I1
sI10195
I2
sI10205
I5
sI10206
I9
sI10209
I6
sI10210
I4
sI10211
I1
sI10212
I1
sI10213
I11
sI10214
I7
sI10223
I4
sI10227
I4
sI10228
I5
sI10229
I8
sI10230
I6
sI10231
I1
sI10232
I1
sI10234
I1
sI10239
I2
sI10251
I1
sI10255
I4
sI10257
I1
sI10258
I5
sI10261
I6
sI10262
I12
sI10265
I7
sI10266
I8
sI10267
I1
sI10269
I9
sI10270
I6
sI10274
I2
sI10279
I6
sI10280
I2
sI10283
I6
sI10284
I4
sI10285
I10
sI10286
I5
sI10290
I4
sI10296
I2
sI10298
I6
sI10308
I1
sI10311
I2
sI10312
I3
sI10313
I7
sI10317
I1
sI10318
I3
sI10321
I7
sI10322
I6
sI10325
I6
sI10326
I10
sI10327
I2
sI10329
I5
sI10330
I3
sI10333
I1
sI10335
I5
sI10336
I5
sI10338
I1
sI10339
I6
sI10340
I7
sI10341
I8
sI10342
I8
sI10343
I3
sI10344
I1
sI10350
I1
sI10351
I2
sI10353
I4
sI10354
I7
sI10357
I3
sI10363
I5
sI10364
I2
sI10367
I9
sI10368
I7
sI10369
I12
sI10370
I6
sI10373
I2
sI10374
I5
sI10377
I7
sI10378
I10
sI10379
I1
sI10381
I7
sI10382
I18
sI10384
I1
sI10385
I4
sI10386
I9
sI10390
I1
sI10391
I18
sI10392
I5
sI10394
I1
sI10395
I3
sI10396
I1
sI10397
I4
sI10398
I7
sI10407
I1
sI10409
I7
sI10410
I10
sI10413
I6
sI10414
I8
sI10419
I8
sI10420
I2
sI10424
I18
sI10425
I8
sI10426
I5
sI10429
I4
sI10430
I8
sI10433
I7
sI10434
I6
sI10435
I1
sI10437
I7
sI10438
I12
sI10440
I2
sI10441
I5
sI10442
I2
sI10444
I1
sI10445
I1
sI10447
I6
sI10448
I7
sI10451
I1
sI10452
I2
sI10453
I13
sI10454
I5
sI10463
I1
sI10465
I12
sI10466
I1
sI10469
I1
sI10475
I6
sI10476
I1
sI10479
I3
sI10480
I11
sI10481
I11
sI10482
I2
sI10485
I4
sI10486
I3
sI10487
I1
sI10489
I4
sI10490
I8
sI10492
I1
sI10493
I3
sI10494
I3
sI10497
I1
sI10498
I4
sI10499
I2
sI10502
I2
sI10503
I3
sI10504
I3
sI10505
I1
sI10507
I5
sI10508
I4
sI10509
I4
sI10510
I3
sI10517
I1
sI10521
I6
sI10522
I5
sI10531
I1
sI10535
I2
sI10536
I3
sI10537
I9
sI10538
I6
sI10541
I5
sI10542
I1
sI10543
I1
sI10544
I1
sI10545
I6
sI10546
I16
sI10549
I8
sI10550
I5
sI10553
I4
sI10554
I3
sI10559
I5
sI10560
I8
sI10564
I4
sI10565
I6
sI10566
I1
sI10568
I1
sI10573
I1
sI10576
I1
sI10577
I3
sI10578
I2
sI10581
I2
sI10587
I2
sI10591
I2
sI10592
I6
sI10593
I6
sI10594
I7
sI10597
I2
sI10598
I2
sI10600
I2
sI10602
I2
sI10605
I2
sI10606
I6
sI10609
I7
sI10610
I3
sI10615
I5
sI10616
I3
sI10617
I2
sI10618
I1
sI10619
I4
sI10620
I2
sI10621
I4
sI10622
I5
sI10624
I1
sI10629
I1
sI10633
I4
sI10634
I3
sI10638
I1
sI10647
I2
sI10648
I2
sI10649
I3
sI10662
I4
sI10665
I4
sI10666
I3
sI10672
I2
sI10675
I2
sI10676
I1
sI10677
I6
sI10678
I1
sI10689
I5
sI10690
I1
sI10694
I2
sI10703
I2
sI10705
I2
sI10706
I3
sI10709
I6
sI10710
I20
sI10711
I1
sI10717
I1
sI10719
I4
sI10721
I1
sI10723
I1
sI10725
I3
sI10727
I15
sI10731
I2
sI10732
I15
sI10734
I2
sI10741
I1
sI10745
I2
sI10746
I2
sI10748
I1
sI7180
I3
sI7183
I1
sI7184
I2
sI7186
I1
sI7209
I1
sI7211
I4
sI7213
I1
sI7217
I12
sI7222
I1
sI7223
I13
sI7235
I3
sI7265
I3
sI7267
I1
sI7268
I5
sI7277
I3
sI7278
I2
sI7279
I1
sI7280
I3
sI7287
I1
sI7291
I5
sI7293
I3
sI7295
I2
sI7296
I3
sI7304
I3
sI7316
I1
sI7318
I5
sI7321
I3
sI7322
I2
sI7323
I3
sI7324
I3
sI7325
I4
sI7329
I1
sI7330
I1
sI7331
I4
sI7332
I1
sI7334
I3
sI7341
I7
sI7342
I3
sI7343
I2
sI7344
I4
sI7347
I3
sI7348
I1
sI7349
I4
sI7350
I2
sI7351
I10
sI7352
I2
sI7355
I1
sI7359
I1
sI7360
I1
sI7363
I4
sI7364
I1
sI7369
I1
sI7371
I2
sI7372
I7
sI7373
I5
sI7374
I1
sI7377
I2
sI7379
I4
sI7380
I3
sI7381
I1
sI7385
I2
sI7387
I3
sI7388
I4
sI7398
I4
sI7400
I9
sI7407
I2
sI7408
I8
sI7409
I2
sI7413
I1
sI7415
I6
sI7416
I6
sI7419
I1
sI7420
I4
sI7427
I4
sI7428
I6
sI7429
I2
sI7430
I2
sI7433
I5
sI7434
I3
sI7435
I1
sI7437
I2
sI7440
I1
sI7441
I6
sI7442
I2
sI7443
I6
sI7444
I2
sI7453
I10
sI7454
I7
sI7455
I7
sI7456
I5
sI7463
I14
sI7464
I3
sI7465
I2
sI7466
I1
sI7470
I1
sI7471
I3
sI7472
I8
sI7474
I2
sI7475
I6
sI7481
I1
sI7483
I8
sI7484
I5
sI7489
I7
sI7490
I1
sI7493
I1
sI7494
I3
sI7497
I10
sI7498
I1
sI7499
I1
sI7509
I3
sI7510
I5
sI7511
I4
sI7512
I12
sI7519
I4
sI7520
I7
sI7521
I2
sI7523
I1
sI7525
I1
sI7527
I3
sI7532
I2
sI7538
I1
sI7539
I1
sI7540
I3
sI7541
I1
sI7545
I10
sI7549
I3
sI7550
I4
sI7553
I4
sI7554
I4
sI7556
I1
sI7558
I1
sI7561
I4
sI7563
I5
sI7564
I8
sI7565
I6
sI7566
I4
sI7567
I10
sI7568
I2
sI7575
I9
sI7576
I7
sI7577
I2
sI7580
I1
sI7583
I3
sI7584
I6
sI7587
I3
sI7588
I2
sI7595
I7
sI7596
I6
sI7597
I7
sI7598
I3
sI7601
I11
sI7602
I1
sI7604
I1
sI7605
I1
sI7606
I5
sI7607
I1
sI7609
I5
sI7610
I1
sI7611
I1
sI7619
I3
sI7621
I3
sI7622
I7
sI7623
I4
sI7624
I8
sI7629
I12
sI7630
I7
sI7631
I12
sI7632
I3
sI7636
I3
sI7639
I4
sI7640
I7
sI7644
I1
sI7651
I2
sI7652
I6
sI7653
I14
sI7654
I11
sI7657
I5
sI7660
I1
sI7661
I7
sI7662
I4
sI7664
I1
sI7665
I3
sI7666
I5
sI7671
I2
sI7672
I4
sI7677
I4
sI7678
I5
sI7679
I14
sI7680
I10
sI7685
I10
sI7686
I4
sI7687
I12
sI7688
I6
sI7692
I4
sI7693
I1
sI7695
I11
sI7696
I3
sI7699
I2
sI7700
I5
sI7707
I8
sI7708
I10
sI7709
I11
sI7710
I14
sI7713
I6
sI7714
I6
sI7718
I1
sI7721
I5
sI7722
I5
sI7723
I1
sI7725
I1
sI7726
I2
sI7727
I3
sI7728
I10
sI7729
I1
sI7730
I1
sI7731
I1
sI7732
I1
sI7733
I8
sI7734
I15
sI7735
I11
sI7736
I7
sI7741
I3
sI7742
I12
sI7743
I9
sI7744
I10
sI7748
I9
sI7750
I1
sI7751
I2
sI7752
I3
sI7755
I1
sI7756
I4
sI7762
I3
sI7763
I5
sI7764
I14
sI7765
I8
sI7766
I11
sI7769
I5
sI7770
I5
sI7771
I4
sI7777
I4
sI7778
I3
sI7779
I8
sI7780
I2
sI7783
I4
sI7790
I14
sI7791
I8
sI7792
I7
sI7797
I6
sI7798
I1
sI7799
I9
sI7800
I2
sI7803
I1
sI7804
I9
sI7805
I1
sI7806
I1
sI7807
I12
sI7808
I10
sI7811
I2
sI7812
I6
sI7819
I7
sI7820
I10
sI7821
I10
sI7822
I4
sI7825
I4
sI7826
I2
sI7827
I3
sI7830
I2
sI7833
I4
sI7834
I6
sI7835
I4
sI7836
I1
sI7839
I2
sI7840
I1
sI7845
I8
sI7846
I3
sI7847
I10
sI7848
I4
sI7853
I6
sI7854
I7
sI7855
I5
sI7856
I8
sI7857
I4
sI7858
I6
sI7859
I8
sI7860
I10
sI7863
I5
sI7864
I3
sI7865
I2
sI7867
I10
sI7868
I1
sI7870
I2
sI7874
I1
sI7875
I8
sI7876
I10
sI7877
I12
sI7878
I4
sI7881
I10
sI7882
I8
sI7883
I4
sI7884
I3
sI7885
I4
sI7886
I3
sI7889
I5
sI7890
I7
sI7891
I1
sI7892
I4
sI7894
I7
sI7895
I2
sI7901
I10
sI7902
I7
sI7903
I10
sI7904
I7
sI7909
I9
sI7910
I2
sI7911
I4
sI7912
I2
sI7913
I2
sI7914
I5
sI7915
I9
sI7916
I9
sI7918
I1
sI7919
I4
sI7920
I4
sI7923
I6
sI7924
I2
sI7931
I1
sI7932
I6
sI7933
I8
sI7934
I7
sI7937
I10
sI7938
I6
sI7939
I9
sI7940
I12
sI7941
I10
sI7942
I2
sI7943
I1
sI7945
I3
sI7946
I2
sI7947
I8
sI7948
I5
sI7949
I9
sI7950
I11
sI7953
I1
sI7954
I1
sI7955
I6
sI7957
I17
sI7958
I3
sI7959
I10
sI7960
I10
sI7966
I4
sI7967
I13
sI7968
I13
sI7969
I4
sI7970
I6
sI7971
I13
sI7972
I12
sI7974
I1
sI7975
I2
sI7976
I4
sI7978
I1
sI7979
I5
sI7980
I7
sI7986
I4
sI7987
I2
sI7988
I9
sI7989
I8
sI7990
I7
sI7994
I3
sI7995
I4
sI7996
I1
sI7997
I4
sI7998
I9
sI7999
I2
sI8001
I5
sI8002
I2
sI8003
I3
sI8005
I4
sI8006
I7
sI8007
I1
sI8008
I1
sI8009
I3
sI8010
I4
sI8011
I6
sI8012
I11
sI8013
I5
sI8014
I2
sI8015
I5
sI8016
I4
sI8023
I4
sI8024
I8
sI8025
I3
sI8026
I4
sI8027
I6
sI8028
I1
sI8031
I3
sI8032
I7
sI8035
I6
sI8043
I6
sI8044
I2
sI8045
I2
sI8046
I1
sI8049
I4
sI8051
I5
sI8053
I2
sI8054
I6
sI8056
I2
sI8057
I1
sI8060
I2
sI8062
I4
sI8063
I1
sI8064
I2
sI8065
I16
sI8066
I7
sI8067
I7
sI8068
I7
sI8071
I2
sI8072
I8
sI8075
I8
sI8076
I2
sI8078
I1
sI8082
I2
sI8086
I2
sI8089
I2
sI8090
I1
sI8092
I2
sI8096
I2
sI8097
I1
sI8099
I3
sI8112
I4
sI8118
I2
sI8121
I8
sI8122
I3
sI8123
I2
sI8124
I10
sI8127
I10
sI8128
I4
sI8129
I3
sI8131
I3
sI8132
I3
sI8137
I4
sI8139
I10
sI8141
I1
sI8145
I5
sI8151
I1
sI8155
I4
sI8156
I8
sI8163
I1
sI8165
I1
sI8166
I2
sI8167
I10
sI8168
I4
sI8169
I1
sI8171
I1
sI8172
I1
sI8174
I1
sI8177
I7
sI8179
I12
sI8180
I6
sI8181
I3
sI8184
I4
sI8185
I2
sI8186
I3
sI8187
I13
sI8188
I3
sI8191
I1
s.